S"@font-face {\n  font-family: 'Cabin';\n  font-style: normal;\n  font-weight: 400;\n  src: local('Cabin Regular'), local('Cabin-Regular'), url(http://fonts.gstatic.com/s/cabin/v7/K6ngFdK5haaaRGBV8waDwA.ttf) format('truetype');\n}\n"
p1
.